target datalayout = "e-m:e-p270:32:32-p271:32:32-p272:64:64-i64:64-i128:128-f80:128-n8:16:32:64-S128"
target triple = "x86_64-pc-linux-gnu"

%struct.ARKodeMemRec = type { ptr, double, ptr, i32, i32, double, double, ptr, i32, double, ptr, i32, i32, ptr, ptr, i32, ptr, ptr, i32, ptr, ptr, ptr, ptr, ptr, ptr, ptr, ptr, ptr, ptr, ptr, ptr, ptr, ptr, ptr, i32, ptr, ptr, i32, ptr, i32, ptr, ptr, ptr, ptr, ptr, ptr, ptr, ptr, ptr, ptr, ptr, ptr, ptr, ptr, ptr, ptr, ptr, ptr, ptr, ptr, ptr, ptr, ptr, ptr, ptr, ptr, i32, ptr, ptr, ptr, ptr, ptr, ptr, ptr, i32, ptr, ptr, ptr, i32, ptr, ptr, ptr, ptr, ptr, ptr, ptr, i32, i32, i32, i32, double, double, double, double, double, double, double, double, double, double, i32, ptr, i64, i32, i32, i32, i32, i64, i64, i32, i64, i64, i64, i64, i64, i64, i64, double, double, double, double, double, i32, double, double, i32, i32, i32, i32, i32, i32, i32, i32, ptr, i32, ptr, ptr, ptr, ptr, i32, i32, i32 }
%struct.ARKodeMRIStepMemRec = type { ptr, ptr, i32, i32, i32, i32, i32, ptr, ptr, i32, i32, i32, ptr, i32, i32, i32, i32, i32, ptr, ptr, ptr, ptr, ptr, ptr, ptr, i32, ptr, i32, ptr, double, double, double, double, i32, double, double, double, double, double, double, i32, i64, i32, i32, i32, ptr, ptr, ptr, ptr, ptr, ptr, ptr, ptr, ptr, double, double, double, i64, i64, i64, i64, i64, i64, i32, i32, i32, double, double, ptr, i32, ptr, ptr }

@.str = private unnamed_addr constant [123 x i8] c"generated/home/dtcxzyw/WorkSpace/Projects/compilers/llvm-opt-benchmark/bench/sundials/sundials/src/arkode/arkode_mristep.c\00", align 1
@__func__.mriStep_GetImplicitRHS = private unnamed_addr constant [23 x i8] c"mriStep_GetImplicitRHS\00", align 1
@.str.75 = private unnamed_addr constant [33 x i8] c"Time step module memory is NULL.\00", align 1

; Function Attrs: nounwind uwtable
define i32 @mriStep_AccessStepMem(ptr noundef %0, ptr noundef %1, ptr noundef %2) #0 {
  %4 = alloca i32, align 4
  %5 = alloca ptr, align 8
  %6 = alloca ptr, align 8
  %7 = alloca ptr, align 8
  store ptr %0, ptr %5, align 8, !tbaa !17
  store ptr %1, ptr %6, align 8, !tbaa !221
  store ptr %2, ptr %7, align 8, !tbaa !225
  %8 = load ptr, ptr %5, align 8, !tbaa !17
  %9 = getelementptr inbounds nuw %struct.ARKodeMemRec, ptr %8, i32 0, i32 19
  %10 = load ptr, ptr %9, align 8, !tbaa !70
  %11 = icmp eq ptr %10, null
  br i1 %11, label %12, label %15

12:                                               ; preds = %3
  %13 = load ptr, ptr %5, align 8, !tbaa !17
  %14 = load ptr, ptr %6, align 8, !tbaa !221
  call void (ptr, i32, i32, ptr, ptr, ptr, ...) @arkProcessError(ptr noundef %13, i32 noundef -21, i32 noundef 3097, ptr noundef %14, ptr noundef @.str, ptr noundef @.str.75)
  store i32 -21, ptr %4, align 4
  br label %20

15:                                               ; preds = %3
  %16 = load ptr, ptr %5, align 8, !tbaa !17
  %17 = getelementptr inbounds nuw %struct.ARKodeMemRec, ptr %16, i32 0, i32 19
  %18 = load ptr, ptr %17, align 8, !tbaa !70
  %19 = load ptr, ptr %7, align 8, !tbaa !225
  store ptr %18, ptr %19, align 8, !tbaa !19
  store i32 0, ptr %4, align 4
  br label %20

20:                                               ; preds = %15, %12
  %21 = load i32, ptr %4, align 4
  ret i32 %21
}

; Function Attrs: nounwind uwtable
define ptr @mriStep_GetImplicitRHS(ptr noundef %0) #0 {
  %2 = alloca ptr, align 8
  %3 = alloca ptr, align 8
  %4 = alloca ptr, align 8
  %5 = alloca i32, align 4
  %6 = alloca i32, align 4
  store ptr %0, ptr %3, align 8, !tbaa !17
  call void @llvm.lifetime.start.p0(i64 8, ptr %4) #8
  call void @llvm.lifetime.start.p0(i64 4, ptr %5) #8
  %7 = load ptr, ptr %3, align 8, !tbaa !17
  %8 = call i32 @mriStep_AccessStepMem(ptr noundef %7, ptr noundef @__func__.mriStep_GetImplicitRHS, ptr noundef %4)
  store i32 %8, ptr %5, align 4, !tbaa !15
  %9 = load i32, ptr %5, align 4, !tbaa !15
  %10 = icmp ne i32 %9, 0
  br i1 %10, label %11, label %12

11:                                               ; preds = %1
  store ptr null, ptr %2, align 8
  store i32 1, ptr %6, align 4
  br label %22

12:                                               ; preds = %1
  %13 = load ptr, ptr %4, align 8, !tbaa !19
  %14 = getelementptr inbounds nuw %struct.ARKodeMRIStepMemRec, ptr %13, i32 0, i32 5
  %15 = load i32, ptr %14, align 4, !tbaa !82
  %16 = icmp ne i32 %15, 0
  br i1 %16, label %17, label %21

17:                                               ; preds = %12
  %18 = load ptr, ptr %4, align 8, !tbaa !19
  %19 = getelementptr inbounds nuw %struct.ARKodeMRIStepMemRec, ptr %18, i32 0, i32 1
  %20 = load ptr, ptr %19, align 8, !tbaa !78
  store ptr %20, ptr %2, align 8
  store i32 1, ptr %6, align 4
  br label %22

21:                                               ; preds = %12
  store ptr null, ptr %2, align 8
  store i32 1, ptr %6, align 4
  br label %22

22:                                               ; preds = %21, %17, %11
  call void @llvm.lifetime.end.p0(i64 4, ptr %5) #8
  call void @llvm.lifetime.end.p0(i64 8, ptr %4) #8
  %23 = load ptr, ptr %2, align 8
  ret ptr %23
}