; Function Attrs: nounwind uwtable
define ptr @mriStep_GetImplicitRHS(ptr noundef %0) #0 {
  %2 = getelementptr inbounds nuw i8, ptr %0, i64 136
  %3 = load ptr, ptr %2, align 8, !tbaa !71
  %4 = icmp eq ptr %3, null
  br i1 %4, label %mriStep_AccessStepMem.exit, label %5

mriStep_AccessStepMem.exit:                       ; preds = %1
  tail call void (ptr, i32, i32, ptr, ptr, ptr, ...) @arkProcessError(ptr noundef nonnull %0, i32 noundef -21, i32 noundef 3097, ptr noundef nonnull @__func__.mriStep_GetImplicitRHS, ptr noundef nonnull @.str, ptr noundef nonnull @.str.75) #14
  br label %11

5:                                                ; preds = %1
  %6 = getelementptr inbounds nuw i8, ptr %3, i64 28
  %7 = load i32, ptr %6, align 4, !tbaa !84
  %.not2 = icmp eq i32 %7, 0
  br i1 %.not2, label %11, label %8

8:                                                ; preds = %5
  %9 = getelementptr inbounds nuw i8, ptr %3, i64 8
  %10 = load ptr, ptr %9, align 8, !tbaa !80
  br label %11

11:                                               ; preds = %mriStep_AccessStepMem.exit, %5, %8
  %.0 = phi ptr [ %10, %8 ], [ null, %mriStep_AccessStepMem.exit ], [ null, %5 ]
  ret ptr %.0
}